target datalayout = "e-m:e-p270:32:32-p271:32:32-p272:64:64-i64:64-i128:128-f80:128-n8:16:32:64-S128"
target triple = "x86_64-pc-linux-gnu"

%struct.test_fixture = type { ptr, i32, ptr, ptr, ptr, ptr, i32 }

@srvcert = internal global ptr null, align 8
@.str.14 = private unnamed_addr constant [31 x i8] c"../openssl/test/cmp_vfy_test.c\00", align 1
@.str.65 = private unnamed_addr constant [37 x i8] c"test_validate_cert_path_wrong_anchor\00", align 1
@.str.75 = private unnamed_addr constant [18 x i8] c"fixture->expected\00", align 1
@.str.90 = private unnamed_addr constant [65 x i8] c"OSSL_CMP_validate_cert_path(fixture->cmp_ctx, ts, fixture->cert)\00", align 1

; Function Attrs: nounwind uwtable
define internal void @tear_down(ptr noundef %0) #0 {
  %2 = alloca ptr, align 8
  store ptr %0, ptr %2, align 8, !tbaa !24
  %3 = load ptr, ptr %2, align 8, !tbaa !24
  %4 = getelementptr inbounds nuw %struct.test_fixture, ptr %3, i32 0, i32 3
  %5 = load ptr, ptr %4, align 8, !tbaa !31
  call void @OSSL_CMP_MSG_free(ptr noundef %5)
  %6 = load ptr, ptr %2, align 8, !tbaa !24
  %7 = getelementptr inbounds nuw %struct.test_fixture, ptr %6, i32 0, i32 2
  %8 = load ptr, ptr %7, align 8, !tbaa !32
  call void @OSSL_CMP_CTX_free(ptr noundef %8)
  %9 = load ptr, ptr %2, align 8, !tbaa !24
  call void @CRYPTO_free(ptr noundef %9, ptr noundef @.str.14, i32 noundef 47)
  ret void
}

; Function Attrs: nounwind uwtable
define internal i32 @execute_validate_cert_path_test(ptr noundef %0) #0 {
  %2 = alloca ptr, align 8
  %3 = alloca ptr, align 8
  %4 = alloca i32, align 4
  store ptr %0, ptr %2, align 8, !tbaa !24
  call void @llvm.lifetime.start.p0(i64 8, ptr %3) #7
  %5 = load ptr, ptr %2, align 8, !tbaa !24
  %6 = getelementptr inbounds nuw %struct.test_fixture, ptr %5, i32 0, i32 2
  %7 = load ptr, ptr %6, align 8, !tbaa !32
  %8 = call ptr @OSSL_CMP_CTX_get0_trustedStore(ptr noundef %7)
  store ptr %8, ptr %3, align 8, !tbaa !39
  call void @llvm.lifetime.start.p0(i64 4, ptr %4) #7
  %9 = load ptr, ptr %2, align 8, !tbaa !24
  %10 = getelementptr inbounds nuw %struct.test_fixture, ptr %9, i32 0, i32 1
  %11 = load i32, ptr %10, align 8, !tbaa !27
  %12 = load ptr, ptr %2, align 8, !tbaa !24
  %13 = getelementptr inbounds nuw %struct.test_fixture, ptr %12, i32 0, i32 2
  %14 = load ptr, ptr %13, align 8, !tbaa !32
  %15 = load ptr, ptr %3, align 8, !tbaa !39
  %16 = load ptr, ptr %2, align 8, !tbaa !24
  %17 = getelementptr inbounds nuw %struct.test_fixture, ptr %16, i32 0, i32 4
  %18 = load ptr, ptr %17, align 8, !tbaa !30
  %19 = call i32 @OSSL_CMP_validate_cert_path(ptr noundef %14, ptr noundef %15, ptr noundef %18)
  %20 = call i32 @test_int_eq(ptr noundef @.str.14, i32 noundef 150, ptr noundef @.str.75, ptr noundef @.str.90, i32 noundef %11, i32 noundef %19)
  store i32 %20, ptr %4, align 4, !tbaa !26
  %21 = load ptr, ptr %2, align 8, !tbaa !24
  %22 = getelementptr inbounds nuw %struct.test_fixture, ptr %21, i32 0, i32 2
  %23 = load ptr, ptr %22, align 8, !tbaa !32
  call void @OSSL_CMP_CTX_print_errors(ptr noundef %23)
  %24 = load i32, ptr %4, align 4, !tbaa !26
  call void @llvm.lifetime.end.p0(i64 4, ptr %4) #7
  call void @llvm.lifetime.end.p0(i64 8, ptr %3) #7
  ret i32 %24
}

; Function Attrs: nounwind uwtable
define internal i32 @test_validate_cert_path_wrong_anchor() #0 {
  %1 = alloca i32, align 4
  %2 = alloca ptr, align 8
  %3 = alloca i32, align 4
  %4 = alloca i32, align 4
  call void @llvm.lifetime.start.p0(i64 8, ptr %2) #7
  %5 = call ptr @set_up(ptr noundef @.str.65)
  store ptr %5, ptr %2, align 8, !tbaa !24
  call void @llvm.lifetime.start.p0(i64 4, ptr %3) #7
  store i32 0, ptr %3, align 4, !tbaa !26
  %6 = load ptr, ptr %2, align 8, !tbaa !24
  %7 = icmp eq ptr %6, null
  br i1 %7, label %8, label %9

8:                                                ; preds = %0
  store i32 0, ptr %1, align 4
  store i32 1, ptr %4, align 4
  br label %19

9:                                                ; preds = %0
  %10 = load ptr, ptr @srvcert, align 8, !tbaa !4
  call void @setup_path(ptr noundef %2, ptr noundef %10, i32 noundef 0)
  %11 = load ptr, ptr %2, align 8, !tbaa !24
  %12 = icmp ne ptr %11, null
  br i1 %12, label %13, label %17

13:                                               ; preds = %9
  %14 = load ptr, ptr %2, align 8, !tbaa !24
  %15 = call i32 @execute_validate_cert_path_test(ptr noundef %14)
  store i32 %15, ptr %3, align 4, !tbaa !26
  %16 = load ptr, ptr %2, align 8, !tbaa !24
  call void @tear_down(ptr noundef %16)
  br label %17

17:                                               ; preds = %13, %9
  %18 = load i32, ptr %3, align 4, !tbaa !26
  store i32 %18, ptr %1, align 4
  store i32 1, ptr %4, align 4
  br label %19

19:                                               ; preds = %17, %8
  call void @llvm.lifetime.end.p0(i64 4, ptr %3) #7
  call void @llvm.lifetime.end.p0(i64 8, ptr %2) #7
  %20 = load i32, ptr %1, align 4
  ret i32 %20
}