; Function Attrs: nounwind uwtable
define internal i32 @test_validate_cert_path_wrong_anchor() #0 {
  %1 = alloca ptr, align 8
  call void @llvm.lifetime.start.p0(i64 8, ptr nonnull %1) #7
  %2 = tail call fastcc ptr @set_up(ptr noundef nonnull @.str.65)
  store ptr %2, ptr %1, align 8, !tbaa !36
  %3 = icmp eq ptr %2, null
  br i1 %3, label %22, label %4

4:                                                ; preds = %0
  %5 = load ptr, ptr @srvcert, align 8, !tbaa !4
  call fastcc void @setup_path(ptr noundef %1, ptr noundef %5, i32 noundef 0)
  %6 = load ptr, ptr %1, align 8, !tbaa !36
  %.not = icmp eq ptr %6, null
  br i1 %.not, label %22, label %7

7:                                                ; preds = %4
  %8 = getelementptr inbounds nuw i8, ptr %6, i64 16
  %9 = load ptr, ptr %8, align 8, !tbaa !28
  %10 = tail call ptr @OSSL_CMP_CTX_get0_trustedStore(ptr noundef %9) #7
  %11 = getelementptr inbounds nuw i8, ptr %6, i64 8
  %12 = load i32, ptr %11, align 8, !tbaa !24
  %13 = load ptr, ptr %8, align 8, !tbaa !28
  %14 = getelementptr inbounds nuw i8, ptr %6, i64 32
  %15 = load ptr, ptr %14, align 8, !tbaa !29
  %16 = tail call i32 @OSSL_CMP_validate_cert_path(ptr noundef %13, ptr noundef %10, ptr noundef %15) #7
  %17 = tail call i32 @test_int_eq(ptr noundef nonnull @.str.14, i32 noundef 150, ptr noundef nonnull @.str.75, ptr noundef nonnull @.str.90, i32 noundef %12, i32 noundef %16) #7
  %18 = load ptr, ptr %8, align 8, !tbaa !28
  tail call void @OSSL_CMP_CTX_print_errors(ptr noundef %18) #7
  %19 = getelementptr inbounds nuw i8, ptr %6, i64 24
  %20 = load ptr, ptr %19, align 8, !tbaa !27
  tail call void @OSSL_CMP_MSG_free(ptr noundef %20) #7
  %21 = load ptr, ptr %8, align 8, !tbaa !28
  tail call void @OSSL_CMP_CTX_free(ptr noundef %21) #7
  tail call void @CRYPTO_free(ptr noundef nonnull %6, ptr noundef nonnull @.str.14, i32 noundef 47) #7
  br label %22

22:                                               ; preds = %4, %7, %0
  %.02 = phi i32 [ 0, %0 ], [ %17, %7 ], [ 0, %4 ]
  call void @llvm.lifetime.end.p0(i64 8, ptr nonnull %1) #7
  ret i32 %.02
}